target datalayout = "e-m:e-p270:32:32-p271:32:32-p272:64:64-i64:64-i128:128-f80:128-n8:16:32:64-S128"
target triple = "x86_64-pc-linux-gnu"

%struct.dsa_gen_ctx = type { ptr, ptr, i32, i64, i64, ptr, i64, i32, i32, i32, i32, ptr, ptr, ptr, ptr }

; Function Attrs: nounwind uwtable
define internal i32 @dsa_gen_set_template(ptr noundef %0, ptr noundef %1) #0 {
  %3 = alloca i32, align 4
  %4 = alloca ptr, align 8
  %5 = alloca ptr, align 8
  %6 = alloca ptr, align 8
  %7 = alloca ptr, align 8
  %8 = alloca i32, align 4
  store ptr %0, ptr %4, align 8, !tbaa !3
  store ptr %1, ptr %5, align 8, !tbaa !3
  call void @llvm.lifetime.start.p0(i64 8, ptr %6) #7
  %9 = load ptr, ptr %4, align 8, !tbaa !3
  store ptr %9, ptr %6, align 8, !tbaa !13
  call void @llvm.lifetime.start.p0(i64 8, ptr %7) #7
  %10 = load ptr, ptr %5, align 8, !tbaa !3
  store ptr %10, ptr %7, align 8, !tbaa !27
  %11 = call i32 @ossl_prov_is_running()
  %12 = icmp ne i32 %11, 0
  br i1 %12, label %13, label %19

13:                                               ; preds = %2
  %14 = load ptr, ptr %6, align 8, !tbaa !13
  %15 = icmp eq ptr %14, null
  br i1 %15, label %19, label %16

16:                                               ; preds = %13
  %17 = load ptr, ptr %7, align 8, !tbaa !27
  %18 = icmp eq ptr %17, null
  br i1 %18, label %19, label %20

19:                                               ; preds = %16, %13, %2
  store i32 0, ptr %3, align 4
  store i32 1, ptr %8, align 4
  br label %25

20:                                               ; preds = %16
  %21 = load ptr, ptr %7, align 8, !tbaa !27
  %22 = call ptr @ossl_dsa_get0_params(ptr noundef %21)
  %23 = load ptr, ptr %6, align 8, !tbaa !13
  %24 = getelementptr inbounds nuw %struct.dsa_gen_ctx, ptr %23, i32 0, i32 1
  store ptr %22, ptr %24, align 8, !tbaa !29
  store i32 1, ptr %3, align 4
  store i32 1, ptr %8, align 4
  br label %25

25:                                               ; preds = %20, %19
  call void @llvm.lifetime.end.p0(i64 8, ptr %7) #7
  call void @llvm.lifetime.end.p0(i64 8, ptr %6) #7
  %26 = load i32, ptr %3, align 4
  ret i32 %26
}