; Function Attrs: nounwind uwtable
define internal range(i32 0, 2) i32 @dsa_gen_set_template(ptr noundef writeonly captures(address_is_null) %0, ptr noundef %1) #0 {
  %3 = tail call i32 @ossl_prov_is_running() #7
  %4 = icmp eq i32 %3, 0
  %5 = icmp eq ptr %0, null
  %or.cond = or i1 %5, %4
  %6 = icmp eq ptr %1, null
  %or.cond3 = or i1 %6, %or.cond
  br i1 %or.cond3, label %10, label %7

7:                                                ; preds = %2
  %8 = tail call ptr @ossl_dsa_get0_params(ptr noundef nonnull %1) #7
  %9 = getelementptr inbounds nuw i8, ptr %0, i64 8
  store ptr %8, ptr %9, align 8, !tbaa !24
  br label %10

10:                                               ; preds = %2, %7
  %.0 = phi i32 [ 1, %7 ], [ 0, %2 ]
  ret i32 %.0
}